; Function Attrs: mustprogress nofree norecurse nosync nounwind willreturn memory(argmem: readwrite) uwtable
define internal noundef zeroext i1 @"_ZNSt17_Function_handlerIFbRKN5Eigen6MatrixIfLi3ELi1ELi0ELi3ELi1EEES4_RN3igl3HitIfEEEZNS5_6embree19unproject_onto_meshERKNS1_IfLi2ELi1ELi0ELi2ELi1EEERKNS1_IfLi4ELi4ELi0ELi4ELi4EEESG_RKNS1_IfLi4ELi1ELi0ELi4ELi1EEERKNSA_17EmbreeIntersectorERiRS2_E3$_0E10_M_managerERSt9_Any_dataRKSR_St18_Manager_operation"(ptr noundef nonnull writeonly align 8 captures(none) dereferenceable(16) %0, ptr noundef nonnull align 8 dereferenceable(16) %1, i32 noundef %2) #5 align 2 personality ptr @__gxx_personality_v0 {
  switch i32 %2, label %"_ZNSt14_Function_base13_Base_managerIZN3igl6embree19unproject_onto_meshERKN5Eigen6MatrixIfLi2ELi1ELi0ELi2ELi1EEERKNS4_IfLi4ELi4ELi0ELi4ELi4EEESA_RKNS4_IfLi4ELi1ELi0ELi4ELi1EEERKNS2_17EmbreeIntersectorERiRNS4_IfLi3ELi1ELi0ELi3ELi1EEEE3$_0E10_M_managerERSt9_Any_dataRKSM_St18_Manager_operation.exit" [
    i32 0, label %4
    i32 1, label %5
    i32 2, label %6
  ]

4:                                                ; preds = %3
  store ptr @"_ZTIZN3igl6embree19unproject_onto_meshERKN5Eigen6MatrixIfLi2ELi1ELi0ELi2ELi1EEERKNS2_IfLi4ELi4ELi0ELi4ELi4EEES8_RKNS2_IfLi4ELi1ELi0ELi4ELi1EEERKNS0_17EmbreeIntersectorERiRNS2_IfLi3ELi1ELi0ELi3ELi1EEEE3$_0", ptr %0, align 8, !tbaa !24
  br label %"_ZNSt14_Function_base13_Base_managerIZN3igl6embree19unproject_onto_meshERKN5Eigen6MatrixIfLi2ELi1ELi0ELi2ELi1EEERKNS4_IfLi4ELi4ELi0ELi4ELi4EEESA_RKNS4_IfLi4ELi1ELi0ELi4ELi1EEERKNS2_17EmbreeIntersectorERiRNS4_IfLi3ELi1ELi0ELi3ELi1EEEE3$_0E10_M_managerERSt9_Any_dataRKSM_St18_Manager_operation.exit"

5:                                                ; preds = %3
  store ptr %1, ptr %0, align 8, !tbaa !26
  br label %"_ZNSt14_Function_base13_Base_managerIZN3igl6embree19unproject_onto_meshERKN5Eigen6MatrixIfLi2ELi1ELi0ELi2ELi1EEERKNS4_IfLi4ELi4ELi0ELi4ELi4EEESA_RKNS4_IfLi4ELi1ELi0ELi4ELi1EEERKNS2_17EmbreeIntersectorERiRNS4_IfLi3ELi1ELi0ELi3ELi1EEEE3$_0E10_M_managerERSt9_Any_dataRKSM_St18_Manager_operation.exit"

6:                                                ; preds = %3
  %.val.i = load i64, ptr %1, align 8, !tbaa !4
  store i64 %.val.i, ptr %0, align 8, !tbaa !4
  br label %"_ZNSt14_Function_base13_Base_managerIZN3igl6embree19unproject_onto_meshERKN5Eigen6MatrixIfLi2ELi1ELi0ELi2ELi1EEERKNS4_IfLi4ELi4ELi0ELi4ELi4EEESA_RKNS4_IfLi4ELi1ELi0ELi4ELi1EEERKNS2_17EmbreeIntersectorERiRNS4_IfLi3ELi1ELi0ELi3ELi1EEEE3$_0E10_M_managerERSt9_Any_dataRKSM_St18_Manager_operation.exit"

"_ZNSt14_Function_base13_Base_managerIZN3igl6embree19unproject_onto_meshERKN5Eigen6MatrixIfLi2ELi1ELi0ELi2ELi1EEERKNS4_IfLi4ELi4ELi0ELi4ELi4EEESA_RKNS4_IfLi4ELi1ELi0ELi4ELi1EEERKNS2_17EmbreeIntersectorERiRNS4_IfLi3ELi1ELi0ELi3ELi1EEEE3$_0E10_M_managerERSt9_Any_dataRKSM_St18_Manager_operation.exit": ; preds = %3, %6, %5, %4
  ret i1 false
}